; Function Attrs: mustprogress uwtable
define hidden void @_ZNK2cv10MatOp_GEMM8multiplyERKNS_7MatExprEdRS1_(ptr nocapture nonnull readnone align 8 %0, ptr noundef nonnull align 8 dereferenceable(352) %1, double noundef %2, ptr noundef nonnull align 8 dereferenceable(352) %3) unnamed_addr #8 align 2 personality ptr @__gxx_personality_v0 {
  %5 = alloca %"class.cv::utils::trace::details::Region", align 8
  call void @_ZN2cv5utils5trace7details6RegionC1ERKNS3_21LocationStaticStorageE(ptr noundef nonnull align 8 dereferenceable(12) %5, ptr noundef nonnull align 8 dereferenceable(32) @_ZZNK2cv10MatOp_GEMM8multiplyERKNS_7MatExprEdRS1_E26__cv_trace_location_fn1609)
  call void @llvm.memcpy.p0.p0.i64(ptr noundef nonnull align 8 dereferenceable(12) %3, ptr noundef nonnull align 8 dereferenceable(12) %1, i64 12, i1 false)
  %6 = getelementptr inbounds i8, ptr %3, i64 16
  %7 = getelementptr inbounds i8, ptr %1, i64 16
  %8 = invoke noundef nonnull align 8 dereferenceable(96) ptr @_ZN2cv3MataSERKS0_(ptr noundef nonnull align 8 dereferenceable(96) %6, ptr noundef nonnull align 8 dereferenceable(96) %7)
          to label %.noexc unwind label %40

.noexc:                                           ; preds = %4
  %9 = getelementptr inbounds i8, ptr %3, i64 112
  %10 = getelementptr inbounds i8, ptr %1, i64 112
  %11 = invoke noundef nonnull align 8 dereferenceable(96) ptr @_ZN2cv3MataSERKS0_(ptr noundef nonnull align 8 dereferenceable(96) %9, ptr noundef nonnull align 8 dereferenceable(96) %10)
          to label %.noexc7 unwind label %40

.noexc7:                                          ; preds = %.noexc
  %12 = getelementptr inbounds i8, ptr %3, i64 208
  %13 = getelementptr inbounds i8, ptr %1, i64 208
  %14 = invoke noundef nonnull align 8 dereferenceable(96) ptr @_ZN2cv3MataSERKS0_(ptr noundef nonnull align 8 dereferenceable(96) %12, ptr noundef nonnull align 8 dereferenceable(96) %13)
          to label %15 unwind label %40

15:                                               ; preds = %.noexc7
  %16 = getelementptr inbounds i8, ptr %3, i64 304
  %17 = getelementptr inbounds i8, ptr %1, i64 304
  call void @llvm.memcpy.p0.p0.i64(ptr noundef nonnull align 8 dereferenceable(16) %16, ptr noundef nonnull align 8 dereferenceable(16) %17, i64 16, i1 false)
  %18 = getelementptr inbounds i8, ptr %3, i64 320
  %19 = getelementptr inbounds i8, ptr %1, i64 320
  %20 = load double, ptr %19, align 8
  store double %20, ptr %18, align 8
  %21 = getelementptr inbounds i8, ptr %1, i64 328
  %22 = load double, ptr %21, align 8
  %23 = getelementptr inbounds i8, ptr %3, i64 328
  store double %22, ptr %23, align 8
  %24 = getelementptr inbounds i8, ptr %1, i64 336
  %25 = load double, ptr %24, align 8
  %26 = getelementptr inbounds i8, ptr %3, i64 336
  store double %25, ptr %26, align 8
  %27 = getelementptr inbounds i8, ptr %1, i64 344
  %28 = load double, ptr %27, align 8
  %29 = getelementptr inbounds i8, ptr %3, i64 344
  store double %28, ptr %29, align 8
  %30 = load <2 x double>, ptr %16, align 8
  %31 = insertelement <2 x double> poison, double %2, i64 0
  %32 = shufflevector <2 x double> %31, <2 x double> poison, <2 x i32> zeroinitializer
  %33 = fmul <2 x double> %30, %32
  store <2 x double> %33, ptr %16, align 8
  %34 = getelementptr inbounds i8, ptr %5, i64 8
  %35 = load i32, ptr %34, align 8
  %.not.i = icmp eq i32 %35, 0
  br i1 %.not.i, label %_ZN2cv5utils5trace7details6RegionD2Ev.exit, label %36

36:                                               ; preds = %15
  invoke void @_ZN2cv5utils5trace7details6Region7destroyEv(ptr noundef nonnull align 8 dereferenceable(12) %5)
          to label %_ZN2cv5utils5trace7details6RegionD2Ev.exit unwind label %37

37:                                               ; preds = %36
  %38 = landingpad { ptr, i32 }
          catch ptr null
  %39 = extractvalue { ptr, i32 } %38, 0
  call void @__clang_call_terminate(ptr %39) #20
  unreachable

_ZN2cv5utils5trace7details6RegionD2Ev.exit:       ; preds = %15, %36
  ret void

40:                                               ; preds = %.noexc7, %.noexc, %4
  %41 = landingpad { ptr, i32 }
          cleanup
  call void @_ZN2cv5utils5trace7details6RegionD2Ev(ptr noundef nonnull align 8 dereferenceable(12) %5) #21
  resume { ptr, i32 } %41
}